#include <math.h>
#include <stdio.h>
#include <stdlib.h>
#include <string.h>

void main()
{
	int n,m;
	scanf("%d",&n);
	if(n==1)printf("End");
	if(n!=1)
	{
		while(n!=1)
		{
			if(n%2==0)
			{
			  m=n/2;
			  printf("%d/2=%d\n",n,m);
			}
		    if(n%2!=0)
			{
			  m=n*3+1;
			  printf("%d*3+1=%d\n",n,m);
			}
			n=m;
		}
		printf("End");
	}
}