; ModuleID = '34/2749.c'
source_filename = "34/2749.c"
target datalayout = "e-m:e-p270:32:32-p271:32:32-p272:64:64-i64:64-f80:128-n8:16:32:64-S128"
target triple = "x86_64-pc-linux-gnu"

@.str = private unnamed_addr constant [3 x i8] c"%d\00", align 1
@.str.1 = private unnamed_addr constant [4 x i8] c"End\00", align 1
@.str.2 = private unnamed_addr constant [9 x i8] c"%d/2=%d\0A\00", align 1
@.str.3 = private unnamed_addr constant [11 x i8] c"%d*3+1=%d\0A\00", align 1

; Function Attrs: noinline nounwind uwtable
define dso_local void @main() #0 {
  %1 = alloca i32, align 4
  %2 = alloca i32, align 4
  %3 = call i32 (i8*, ...) @__isoc99_scanf(i8* getelementptr inbounds ([3 x i8], [3 x i8]* @.str, i64 0, i64 0), i32* %1)
  %4 = load i32, i32* %1, align 4
  %5 = icmp eq i32 %4, 1
  br i1 %5, label %6, label %8

6:                                                ; preds = %0
  %7 = call i32 (i8*, ...) @printf(i8* getelementptr inbounds ([4 x i8], [4 x i8]* @.str.1, i64 0, i64 0))
  br label %8

8:                                                ; preds = %6, %0
  %9 = load i32, i32* %1, align 4
  %10 = icmp ne i32 %9, 1
  br i1 %10, label %11, label %40

11:                                               ; preds = %8
  br label %12

12:                                               ; preds = %36, %11
  %13 = load i32, i32* %1, align 4
  %14 = icmp ne i32 %13, 1
  br i1 %14, label %15, label %38

15:                                               ; preds = %12
  %16 = load i32, i32* %1, align 4
  %17 = srem i32 %16, 2
  %18 = icmp eq i32 %17, 0
  br i1 %18, label %19, label %25

19:                                               ; preds = %15
  %20 = load i32, i32* %1, align 4
  %21 = sdiv i32 %20, 2
  store i32 %21, i32* %2, align 4
  %22 = load i32, i32* %1, align 4
  %23 = load i32, i32* %2, align 4
  %24 = call i32 (i8*, ...) @printf(i8* getelementptr inbounds ([9 x i8], [9 x i8]* @.str.2, i64 0, i64 0), i32 %22, i32 %23)
  br label %25

25:                                               ; preds = %19, %15
  %26 = load i32, i32* %1, align 4
  %27 = srem i32 %26, 2
  %28 = icmp ne i32 %27, 0
  br i1 %28, label %29, label %36

29:                                               ; preds = %25
  %30 = load i32, i32* %1, align 4
  %31 = mul nsw i32 %30, 3
  %32 = add nsw i32 %31, 1
  store i32 %32, i32* %2, align 4
  %33 = load i32, i32* %1, align 4
  %34 = load i32, i32* %2, align 4
  %35 = call i32 (i8*, ...) @printf(i8* getelementptr inbounds ([11 x i8], [11 x i8]* @.str.3, i64 0, i64 0), i32 %33, i32 %34)
  br label %36

36:                                               ; preds = %29, %25
  %37 = load i32, i32* %2, align 4
  store i32 %37, i32* %1, align 4
  br label %12

38:                                               ; preds = %12
  %39 = call i32 (i8*, ...) @printf(i8* getelementptr inbounds ([4 x i8], [4 x i8]* @.str.1, i64 0, i64 0))
  br label %40

40:                                               ; preds = %38, %8
  ret void
}

declare dso_local i32 @__isoc99_scanf(i8*, ...) #1

declare dso_local i32 @printf(i8*, ...) #1


!llvm.module.flags = !{!0}
!llvm.ident = !{!1}

!0 = !{i32 1, !"wchar_size", i32 4}
!1 = !{!"clang version 10.0.0-4ubuntu1 "}
